target datalayout = "e-m:e-p270:32:32-p271:32:32-p272:64:64-i64:64-i128:128-f80:128-n8:16:32:64-S128"
target triple = "x86_64-pc-linux-gnu"

%struct.png_XYZ = type { i32, i32, i32, i32, i32, i32, i32, i32, i32 }
%struct.png_xy = type { i32, i32, i32, i32, i32, i32, i32, i32 }
%struct.png_colorspace = type { i32, %struct.png_xy, %struct.png_XYZ, i16, i16 }

@.str.22 = private unnamed_addr constant [23 x i8] c"invalid chromaticities\00", align 1
@.str.23 = private unnamed_addr constant [39 x i8] c"internal error checking chromaticities\00", align 1
@sRGB_xy = internal constant %struct.png_xy { i32 64000, i32 33000, i32 30000, i32 60000, i32 15000, i32 6000, i32 31270, i32 32900 }, align 4
@.str.70 = private unnamed_addr constant [28 x i8] c"inconsistent chromaticities\00", align 1

; Function Attrs: nounwind uwtable
define internal i32 @png_colorspace_set_xy_and_XYZ(ptr noalias noundef %0, ptr noalias noundef %1, ptr noundef %2, ptr noundef %3, i32 noundef %4) #0 {
  %6 = alloca i32, align 4
  %7 = alloca ptr, align 8
  %8 = alloca ptr, align 8
  %9 = alloca ptr, align 8
  %10 = alloca ptr, align 8
  %11 = alloca i32, align 4
  store ptr %0, ptr %7, align 8
  store ptr %1, ptr %8, align 8
  store ptr %2, ptr %9, align 8
  store ptr %3, ptr %10, align 8
  store i32 %4, ptr %11, align 4
  %12 = load ptr, ptr %8, align 8
  %13 = getelementptr inbounds %struct.png_colorspace, ptr %12, i32 0, i32 4
  %14 = load i16, ptr %13, align 2
  %15 = zext i16 %14 to i32
  %16 = and i32 %15, 32768
  %17 = icmp ne i32 %16, 0
  br i1 %17, label %18, label %19

18:                                               ; preds = %5
  store i32 0, ptr %6, align 4
  br label %79

19:                                               ; preds = %5
  %20 = load i32, ptr %11, align 4
  %21 = icmp slt i32 %20, 2
  br i1 %21, label %22, label %48

22:                                               ; preds = %19
  %23 = load ptr, ptr %8, align 8
  %24 = getelementptr inbounds %struct.png_colorspace, ptr %23, i32 0, i32 4
  %25 = load i16, ptr %24, align 2
  %26 = zext i16 %25 to i32
  %27 = and i32 %26, 2
  %28 = icmp ne i32 %27, 0
  br i1 %28, label %29, label %48

29:                                               ; preds = %22
  %30 = load ptr, ptr %9, align 8
  %31 = load ptr, ptr %8, align 8
  %32 = getelementptr inbounds %struct.png_colorspace, ptr %31, i32 0, i32 1
  %33 = call i32 @png_colorspace_endpoints_match(ptr noundef %30, ptr noundef %32, i32 noundef 100)
  %34 = icmp eq i32 %33, 0
  br i1 %34, label %35, label %43

35:                                               ; preds = %29
  %36 = load ptr, ptr %8, align 8
  %37 = getelementptr inbounds %struct.png_colorspace, ptr %36, i32 0, i32 4
  %38 = load i16, ptr %37, align 2
  %39 = zext i16 %38 to i32
  %40 = or i32 %39, 32768
  %41 = trunc i32 %40 to i16
  store i16 %41, ptr %37, align 2
  %42 = load ptr, ptr %7, align 8
  call void @png_benign_error(ptr noundef %42, ptr noundef @.str.70)
  store i32 0, ptr %6, align 4
  br label %79

43:                                               ; preds = %29
  %44 = load i32, ptr %11, align 4
  %45 = icmp eq i32 %44, 0
  br i1 %45, label %46, label %47

46:                                               ; preds = %43
  store i32 1, ptr %6, align 4
  br label %79

47:                                               ; preds = %43
  br label %48

48:                                               ; preds = %47, %22, %19
  %49 = load ptr, ptr %8, align 8
  %50 = getelementptr inbounds %struct.png_colorspace, ptr %49, i32 0, i32 1
  %51 = load ptr, ptr %9, align 8
  call void @llvm.memcpy.p0.p0.i64(ptr align 4 %50, ptr align 4 %51, i64 32, i1 false)
  %52 = load ptr, ptr %8, align 8
  %53 = getelementptr inbounds %struct.png_colorspace, ptr %52, i32 0, i32 2
  %54 = load ptr, ptr %10, align 8
  call void @llvm.memcpy.p0.p0.i64(ptr align 4 %53, ptr align 4 %54, i64 36, i1 false)
  %55 = load ptr, ptr %8, align 8
  %56 = getelementptr inbounds %struct.png_colorspace, ptr %55, i32 0, i32 4
  %57 = load i16, ptr %56, align 2
  %58 = zext i16 %57 to i32
  %59 = or i32 %58, 2
  %60 = trunc i32 %59 to i16
  store i16 %60, ptr %56, align 2
  %61 = load ptr, ptr %9, align 8
  %62 = call i32 @png_colorspace_endpoints_match(ptr noundef %61, ptr noundef @sRGB_xy, i32 noundef 1000)
  %63 = icmp ne i32 %62, 0
  br i1 %63, label %64, label %71

64:                                               ; preds = %48
  %65 = load ptr, ptr %8, align 8
  %66 = getelementptr inbounds %struct.png_colorspace, ptr %65, i32 0, i32 4
  %67 = load i16, ptr %66, align 2
  %68 = zext i16 %67 to i32
  %69 = or i32 %68, 64
  %70 = trunc i32 %69 to i16
  store i16 %70, ptr %66, align 2
  br label %78

71:                                               ; preds = %48
  %72 = load ptr, ptr %8, align 8
  %73 = getelementptr inbounds %struct.png_colorspace, ptr %72, i32 0, i32 4
  %74 = load i16, ptr %73, align 2
  %75 = zext i16 %74 to i32
  %76 = and i32 %75, 65471
  %77 = trunc i32 %76 to i16
  store i16 %77, ptr %73, align 2
  br label %78

78:                                               ; preds = %71, %64
  store i32 2, ptr %6, align 4
  br label %79

79:                                               ; preds = %78, %46, %35, %18
  %80 = load i32, ptr %6, align 4
  ret i32 %80
}

; Function Attrs: nounwind uwtable
define hidden i32 @png_colorspace_set_chromaticities(ptr noalias noundef %0, ptr noalias noundef %1, ptr noundef %2, i32 noundef %3) #0 {
  %5 = alloca i32, align 4
  %6 = alloca ptr, align 8
  %7 = alloca ptr, align 8
  %8 = alloca ptr, align 8
  %9 = alloca i32, align 4
  %10 = alloca %struct.png_XYZ, align 4
  store ptr %0, ptr %6, align 8
  store ptr %1, ptr %7, align 8
  store ptr %2, ptr %8, align 8
  store i32 %3, ptr %9, align 4
  %11 = load ptr, ptr %8, align 8
  %12 = call i32 @png_colorspace_check_xy(ptr noundef %10, ptr noundef %11)
  switch i32 %12, label %27 [
    i32 0, label %13
    i32 1, label %19
  ]

13:                                               ; preds = %4
  %14 = load ptr, ptr %6, align 8
  %15 = load ptr, ptr %7, align 8
  %16 = load ptr, ptr %8, align 8
  %17 = load i32, ptr %9, align 4
  %18 = call i32 @png_colorspace_set_xy_and_XYZ(ptr noundef %14, ptr noundef %15, ptr noundef %16, ptr noundef %10, i32 noundef %17)
  store i32 %18, ptr %5, align 4
  br label %36

19:                                               ; preds = %4
  %20 = load ptr, ptr %7, align 8
  %21 = getelementptr inbounds %struct.png_colorspace, ptr %20, i32 0, i32 4
  %22 = load i16, ptr %21, align 2
  %23 = zext i16 %22 to i32
  %24 = or i32 %23, 32768
  %25 = trunc i32 %24 to i16
  store i16 %25, ptr %21, align 2
  %26 = load ptr, ptr %6, align 8
  call void @png_benign_error(ptr noundef %26, ptr noundef @.str.22)
  br label %35

27:                                               ; preds = %4
  %28 = load ptr, ptr %7, align 8
  %29 = getelementptr inbounds %struct.png_colorspace, ptr %28, i32 0, i32 4
  %30 = load i16, ptr %29, align 2
  %31 = zext i16 %30 to i32
  %32 = or i32 %31, 32768
  %33 = trunc i32 %32 to i16
  store i16 %33, ptr %29, align 2
  %34 = load ptr, ptr %6, align 8
  call void @png_error(ptr noundef %34, ptr noundef @.str.23) #10
  unreachable

35:                                               ; preds = %19
  store i32 0, ptr %5, align 4
  br label %36

36:                                               ; preds = %35, %13
  %37 = load i32, ptr %5, align 4
  ret i32 %37
}